; Function Attrs: null_pointer_is_valid sspstrong uwtable
define internal noundef i32 @netlogon_dissect_CREDENTIAL(ptr noundef %0, i32 noundef %1, ptr readnone captures(none) %2, ptr noundef %3, ptr noundef readonly captures(none) %4, ptr readnone captures(none) %5) #0 {
  %7 = getelementptr inbounds nuw i8, ptr %4, i64 25
  %8 = load i8, ptr %7, align 1, !range !6, !noundef !7
  %9 = trunc nuw i8 %8 to i1
  br i1 %9, label %14, label %10

10:                                               ; preds = %6
  %11 = load i32, ptr @hf_netlogon_credential, align 4
  %12 = tail call ptr @proto_tree_add_item(ptr noundef %3, i32 noundef %11, ptr noundef %0, i32 noundef %1, i32 noundef 8, i32 noundef 0)
  %13 = add i32 %1, 8
  br label %14

14:                                               ; preds = %6, %10
  %.0 = phi i32 [ %13, %10 ], [ %1, %6 ]
  ret i32 %.0
}